; Function Attrs: mustprogress nofree norecurse nosync nounwind willreturn memory(read, inaccessiblemem: none) uwtable
define hidden noundef zeroext i1 @_ZNK9used_vars13uses_all_varsEj(ptr nocapture noundef nonnull readonly align 8 dereferenceable(48) %this, i32 noundef %num_decls) local_unnamed_addr #4 align 2 {
entry:
  %0 = load ptr, ptr %this, align 8
  %cmp.i = icmp eq ptr %0, null
  br i1 %cmp.i, label %_ZNK6vectorIP4sortLb0EjE4sizeEv.exit, label %if.end.i

if.end.i:                                         ; preds = %entry
  %arrayidx.i = getelementptr inbounds i8, ptr %0, i64 -4
  %1 = load i32, ptr %arrayidx.i, align 4
  br label %_ZNK6vectorIP4sortLb0EjE4sizeEv.exit

_ZNK6vectorIP4sortLb0EjE4sizeEv.exit:             ; preds = %entry, %if.end.i
  %retval.0.i = phi i32 [ %1, %if.end.i ], [ 0, %entry ]
  %cmp = icmp ult i32 %retval.0.i, %num_decls
  br i1 %cmp, label %return, label %for.cond.preheader

for.cond.preheader:                               ; preds = %_ZNK6vectorIP4sortLb0EjE4sizeEv.exit
  %cmp25.not = icmp eq i32 %num_decls, 0
  br i1 %cmp25.not, label %return, label %for.body.preheader

for.body.preheader:                               ; preds = %for.cond.preheader
  %wide.trip.count = zext i32 %num_decls to i64
  br label %for.body

for.body:                                         ; preds = %for.body, %for.body.preheader
  %indvars.iv = phi i64 [ 0, %for.body.preheader ], [ %indvars.iv.next, %for.body ]
  %arrayidx.i4 = getelementptr inbounds ptr, ptr %0, i64 %indvars.iv
  %2 = load ptr, ptr %arrayidx.i4, align 8
  %tobool.not.not = icmp ne ptr %2, null
  %indvars.iv.next = add nuw nsw i64 %indvars.iv, 1
  %exitcond.not = icmp ne i64 %indvars.iv.next, %wide.trip.count
  %or.cond.not = select i1 %tobool.not.not, i1 %exitcond.not, i1 false
  br i1 %or.cond.not, label %for.body, label %return, !llvm.loop !11

return:                                           ; preds = %for.body, %for.cond.preheader, %_ZNK6vectorIP4sortLb0EjE4sizeEv.exit
  %retval.0 = phi i1 [ false, %_ZNK6vectorIP4sortLb0EjE4sizeEv.exit ], [ true, %for.cond.preheader ], [ %tobool.not.not, %for.body ]
  ret i1 %retval.0
}